target datalayout = "e-m:e-p270:32:32-p271:32:32-p272:64:64-i64:64-i128:128-f80:128-n8:16:32:64-S128"
target triple = "x86_64-pc-linux-gnu"

%struct.ossl_param_st = type { ptr, i32, ptr, i64, i64 }

@.str.53 = private unnamed_addr constant [31 x i8] c"../openssl/test/evp_kdf_test.c\00", align 1
@.str.65 = private unnamed_addr constant [37 x i8] c"EVP_KDF_CTX_set_params(kctx, params)\00", align 1
@.str.68 = private unnamed_addr constant [4 x i8] c"out\00", align 1
@.str.73 = private unnamed_addr constant [7 x i8] c"digest\00", align 1
@.str.76 = private unnamed_addr constant [4 x i8] c"mac\00", align 1
@.str.78 = private unnamed_addr constant [5 x i8] c"mode\00", align 1
@.str.80 = private unnamed_addr constant [4 x i8] c"key\00", align 1
@.str.82 = private unnamed_addr constant [6 x i8] c"KBKDF\00", align 1
@.str.89 = private unnamed_addr constant [5 x i8] c"HMAC\00", align 1
@.str.92 = private unnamed_addr constant [8 x i8] c"COUNTER\00", align 1
@.str.93 = private unnamed_addr constant [5 x i8] c"info\00", align 1
@.str.94 = private unnamed_addr constant [2 x i8] c"r\00", align 1
@.str.97 = private unnamed_addr constant [7 x i8] c"output\00", align 1
@.str.100 = private unnamed_addr constant [6 x i8] c"use-l\00", align 1
@.str.101 = private unnamed_addr constant [14 x i8] c"use-separator\00", align 1
@.str.120 = private unnamed_addr constant [47 x i8] c"EVP_KDF_derive(kctx, out, sizeof(out), params)\00", align 1
@.str.155 = private unnamed_addr constant [8 x i8] c"KMAC128\00", align 1
@.str.156 = private unnamed_addr constant [7 x i8] c"SHA256\00", align 1
@test_kbkdf_mac_change.key = internal global [32 x i8] c">\DCk[\8Fz\AD\BDq72\B4\82\B8\F9y(n\1E\A3\B8\F8\F9\9C0\C8\84\CF\E34\9B\83", align 16
@test_kbkdf_mac_change.info = internal global [60 x i8] c"\98\E9\98\8B\B4\CC\8B4\D7\92.\1Ch\ADi+\A2\A1\D9\AE\15\14\95qg_\17\A7z\D4\9E\80\C8\D2\A8^\83\1A&D[\1F\0F\F4Mp\84\A1r\06\B4\89l\81\12\DA\AD\18`Z", align 16
@test_kbkdf_mac_change.output = internal constant [16 x i8] c"l\03vR\99\06t\A0xDs-\0A\D9\85\F9", align 16
@.str.190 = private unnamed_addr constant [42 x i8] c"kctx = get_kdfbyname(OSSL_KDF_NAME_KBKDF)\00", align 1

; Function Attrs: nounwind uwtable
define internal ptr @get_kdfbyname_libctx(ptr noundef %0, ptr noundef %1) #0 {
  %3 = alloca ptr, align 8
  %4 = alloca ptr, align 8
  %5 = alloca ptr, align 8
  %6 = alloca ptr, align 8
  store ptr %0, ptr %3, align 8, !tbaa !11
  store ptr %1, ptr %4, align 8, !tbaa !18
  call void @llvm.lifetime.start.p0(i64 8, ptr %5) #6
  %7 = load ptr, ptr %3, align 8, !tbaa !11
  %8 = load ptr, ptr %4, align 8, !tbaa !18
  %9 = call ptr @EVP_KDF_fetch(ptr noundef %7, ptr noundef %8, ptr noundef null)
  store ptr %9, ptr %5, align 8, !tbaa !26
  call void @llvm.lifetime.start.p0(i64 8, ptr %6) #6
  %10 = load ptr, ptr %5, align 8, !tbaa !26
  %11 = call ptr @EVP_KDF_CTX_new(ptr noundef %10)
  store ptr %11, ptr %6, align 8, !tbaa !8
  %12 = load ptr, ptr %5, align 8, !tbaa !26
  call void @EVP_KDF_free(ptr noundef %12)
  %13 = load ptr, ptr %6, align 8, !tbaa !8
  call void @llvm.lifetime.end.p0(i64 8, ptr %6) #6
  call void @llvm.lifetime.end.p0(i64 8, ptr %5) #6
  ret ptr %13
}

; Function Attrs: nounwind uwtable
define internal ptr @get_kdfbyname(ptr noundef %0) #0 {
  %2 = alloca ptr, align 8
  store ptr %0, ptr %2, align 8, !tbaa !18
  %3 = load ptr, ptr %2, align 8, !tbaa !18
  %4 = call ptr @get_kdfbyname_libctx(ptr noundef null, ptr noundef %3)
  ret ptr %4
}

; Function Attrs: nounwind uwtable
define internal i32 @test_kbkdf_mac_change() #0 {
  %1 = alloca i32, align 4
  %2 = alloca ptr, align 8
  %3 = alloca [9 x %struct.ossl_param_st], align 16
  %4 = alloca ptr, align 8
  %5 = alloca i32, align 4
  %6 = alloca i32, align 4
  %7 = alloca i32, align 4
  %8 = alloca [16 x i8], align 16
  %9 = alloca %struct.ossl_param_st, align 8
  %10 = alloca %struct.ossl_param_st, align 8
  %11 = alloca %struct.ossl_param_st, align 8
  %12 = alloca %struct.ossl_param_st, align 8
  %13 = alloca %struct.ossl_param_st, align 8
  %14 = alloca %struct.ossl_param_st, align 8
  %15 = alloca %struct.ossl_param_st, align 8
  %16 = alloca %struct.ossl_param_st, align 8
  %17 = alloca %struct.ossl_param_st, align 8
  %18 = alloca %struct.ossl_param_st, align 8
  %19 = alloca %struct.ossl_param_st, align 8
  call void @llvm.lifetime.start.p0(i64 4, ptr %1) #6
  store i32 0, ptr %1, align 4, !tbaa !4
  call void @llvm.lifetime.start.p0(i64 8, ptr %2) #6
  store ptr null, ptr %2, align 8, !tbaa !8
  call void @llvm.lifetime.start.p0(i64 360, ptr %3) #6
  call void @llvm.lifetime.start.p0(i64 8, ptr %4) #6
  %20 = getelementptr inbounds [9 x %struct.ossl_param_st], ptr %3, i64 0, i64 0
  store ptr %20, ptr %4, align 8, !tbaa !13
  call void @llvm.lifetime.start.p0(i64 4, ptr %5) #6
  store i32 0, ptr %5, align 4, !tbaa !4
  call void @llvm.lifetime.start.p0(i64 4, ptr %6) #6
  store i32 0, ptr %6, align 4, !tbaa !4
  call void @llvm.lifetime.start.p0(i64 4, ptr %7) #6
  store i32 8, ptr %7, align 4, !tbaa !4
  call void @llvm.lifetime.start.p0(i64 16, ptr %8) #6
  %21 = getelementptr inbounds [9 x %struct.ossl_param_st], ptr %3, i64 0, i64 0
  call void @llvm.lifetime.start.p0(i64 40, ptr %9) #6
  call void @OSSL_PARAM_construct_utf8_string(ptr dead_on_unwind writable sret(%struct.ossl_param_st) align 8 %9, ptr noundef @.str.76, ptr noundef @.str.155, i64 noundef 0)
  call void @llvm.memcpy.p0.p0.i64(ptr align 16 %21, ptr align 8 %9, i64 40, i1 false), !tbaa.struct !17
  call void @llvm.lifetime.end.p0(i64 40, ptr %9) #6
  %22 = getelementptr inbounds [9 x %struct.ossl_param_st], ptr %3, i64 0, i64 1
  call void @llvm.lifetime.start.p0(i64 40, ptr %10) #6
  call void @OSSL_PARAM_construct_end(ptr dead_on_unwind writable sret(%struct.ossl_param_st) align 8 %10)
  call void @llvm.memcpy.p0.p0.i64(ptr align 8 %22, ptr align 8 %10, i64 40, i1 false), !tbaa.struct !17
  call void @llvm.lifetime.end.p0(i64 40, ptr %10) #6
  %23 = call ptr @get_kdfbyname(ptr noundef @.str.82)
  store ptr %23, ptr %2, align 8, !tbaa !8
  %24 = call i32 @test_ptr(ptr noundef @.str.53, i32 noundef 2008, ptr noundef @.str.190, ptr noundef %23)
  %25 = icmp ne i32 %24, 0
  br i1 %25, label %26, label %34

26:                                               ; preds = %0
  %27 = load ptr, ptr %2, align 8, !tbaa !8
  %28 = getelementptr inbounds [9 x %struct.ossl_param_st], ptr %3, i64 0, i64 0
  %29 = call i32 @EVP_KDF_CTX_set_params(ptr noundef %27, ptr noundef %28)
  %30 = icmp ne i32 %29, 0
  %31 = zext i1 %30 to i32
  %32 = call i32 @test_true(ptr noundef @.str.53, i32 noundef 2009, ptr noundef @.str.65, i32 noundef %31)
  %33 = icmp ne i32 %32, 0
  br i1 %33, label %35, label %34

34:                                               ; preds = %26, %0
  br label %67

35:                                               ; preds = %26
  %36 = load ptr, ptr %4, align 8, !tbaa !13
  %37 = getelementptr inbounds nuw %struct.ossl_param_st, ptr %36, i32 1
  store ptr %37, ptr %4, align 8, !tbaa !13
  call void @llvm.lifetime.start.p0(i64 40, ptr %11) #6
  call void @OSSL_PARAM_construct_utf8_string(ptr dead_on_unwind writable sret(%struct.ossl_param_st) align 8 %11, ptr noundef @.str.78, ptr noundef @.str.92, i64 noundef 0)
  call void @llvm.memcpy.p0.p0.i64(ptr align 8 %36, ptr align 8 %11, i64 40, i1 false), !tbaa.struct !17
  call void @llvm.lifetime.end.p0(i64 40, ptr %11) #6
  %38 = load ptr, ptr %4, align 8, !tbaa !13
  %39 = getelementptr inbounds nuw %struct.ossl_param_st, ptr %38, i32 1
  store ptr %39, ptr %4, align 8, !tbaa !13
  call void @llvm.lifetime.start.p0(i64 40, ptr %12) #6
  call void @OSSL_PARAM_construct_utf8_string(ptr dead_on_unwind writable sret(%struct.ossl_param_st) align 8 %12, ptr noundef @.str.76, ptr noundef @.str.89, i64 noundef 0)
  call void @llvm.memcpy.p0.p0.i64(ptr align 8 %38, ptr align 8 %12, i64 40, i1 false), !tbaa.struct !17
  call void @llvm.lifetime.end.p0(i64 40, ptr %12) #6
  %40 = load ptr, ptr %4, align 8, !tbaa !13
  %41 = getelementptr inbounds nuw %struct.ossl_param_st, ptr %40, i32 1
  store ptr %41, ptr %4, align 8, !tbaa !13
  call void @llvm.lifetime.start.p0(i64 40, ptr %13) #6
  call void @OSSL_PARAM_construct_utf8_string(ptr dead_on_unwind writable sret(%struct.ossl_param_st) align 8 %13, ptr noundef @.str.73, ptr noundef @.str.156, i64 noundef 0)
  call void @llvm.memcpy.p0.p0.i64(ptr align 8 %40, ptr align 8 %13, i64 40, i1 false), !tbaa.struct !17
  call void @llvm.lifetime.end.p0(i64 40, ptr %13) #6
  %42 = load ptr, ptr %4, align 8, !tbaa !13
  %43 = getelementptr inbounds nuw %struct.ossl_param_st, ptr %42, i32 1
  store ptr %43, ptr %4, align 8, !tbaa !13
  call void @llvm.lifetime.start.p0(i64 40, ptr %14) #6
  call void @OSSL_PARAM_construct_int(ptr dead_on_unwind writable sret(%struct.ossl_param_st) align 8 %14, ptr noundef @.str.100, ptr noundef %5)
  call void @llvm.memcpy.p0.p0.i64(ptr align 8 %42, ptr align 8 %14, i64 40, i1 false), !tbaa.struct !17
  call void @llvm.lifetime.end.p0(i64 40, ptr %14) #6
  %44 = load ptr, ptr %4, align 8, !tbaa !13
  %45 = getelementptr inbounds nuw %struct.ossl_param_st, ptr %44, i32 1
  store ptr %45, ptr %4, align 8, !tbaa !13
  call void @llvm.lifetime.start.p0(i64 40, ptr %15) #6
  call void @OSSL_PARAM_construct_int(ptr dead_on_unwind writable sret(%struct.ossl_param_st) align 8 %15, ptr noundef @.str.101, ptr noundef %6)
  call void @llvm.memcpy.p0.p0.i64(ptr align 8 %44, ptr align 8 %15, i64 40, i1 false), !tbaa.struct !17
  call void @llvm.lifetime.end.p0(i64 40, ptr %15) #6
  %46 = load ptr, ptr %4, align 8, !tbaa !13
  %47 = getelementptr inbounds nuw %struct.ossl_param_st, ptr %46, i32 1
  store ptr %47, ptr %4, align 8, !tbaa !13
  call void @llvm.lifetime.start.p0(i64 40, ptr %16) #6
  call void @OSSL_PARAM_construct_int(ptr dead_on_unwind writable sret(%struct.ossl_param_st) align 8 %16, ptr noundef @.str.94, ptr noundef %7)
  call void @llvm.memcpy.p0.p0.i64(ptr align 8 %46, ptr align 8 %16, i64 40, i1 false), !tbaa.struct !17
  call void @llvm.lifetime.end.p0(i64 40, ptr %16) #6
  %48 = load ptr, ptr %4, align 8, !tbaa !13
  %49 = getelementptr inbounds nuw %struct.ossl_param_st, ptr %48, i32 1
  store ptr %49, ptr %4, align 8, !tbaa !13
  call void @llvm.lifetime.start.p0(i64 40, ptr %17) #6
  call void @OSSL_PARAM_construct_octet_string(ptr dead_on_unwind writable sret(%struct.ossl_param_st) align 8 %17, ptr noundef @.str.80, ptr noundef @test_kbkdf_mac_change.key, i64 noundef 32)
  call void @llvm.memcpy.p0.p0.i64(ptr align 8 %48, ptr align 8 %17, i64 40, i1 false), !tbaa.struct !17
  call void @llvm.lifetime.end.p0(i64 40, ptr %17) #6
  %50 = load ptr, ptr %4, align 8, !tbaa !13
  %51 = getelementptr inbounds nuw %struct.ossl_param_st, ptr %50, i32 1
  store ptr %51, ptr %4, align 8, !tbaa !13
  call void @llvm.lifetime.start.p0(i64 40, ptr %18) #6
  call void @OSSL_PARAM_construct_octet_string(ptr dead_on_unwind writable sret(%struct.ossl_param_st) align 8 %18, ptr noundef @.str.93, ptr noundef @test_kbkdf_mac_change.info, i64 noundef 60)
  call void @llvm.memcpy.p0.p0.i64(ptr align 8 %50, ptr align 8 %18, i64 40, i1 false), !tbaa.struct !17
  call void @llvm.lifetime.end.p0(i64 40, ptr %18) #6
  %52 = load ptr, ptr %4, align 8, !tbaa !13
  call void @llvm.lifetime.start.p0(i64 40, ptr %19) #6
  call void @OSSL_PARAM_construct_end(ptr dead_on_unwind writable sret(%struct.ossl_param_st) align 8 %19)
  call void @llvm.memcpy.p0.p0.i64(ptr align 8 %52, ptr align 8 %19, i64 40, i1 false), !tbaa.struct !17
  call void @llvm.lifetime.end.p0(i64 40, ptr %19) #6
  %53 = load ptr, ptr %2, align 8, !tbaa !8
  %54 = getelementptr inbounds [16 x i8], ptr %8, i64 0, i64 0
  %55 = getelementptr inbounds [9 x %struct.ossl_param_st], ptr %3, i64 0, i64 0
  %56 = call i32 @EVP_KDF_derive(ptr noundef %53, ptr noundef %54, i64 noundef 16, ptr noundef %55)
  %57 = icmp ne i32 %56, 0
  %58 = zext i1 %57 to i32
  %59 = call i32 @test_true(ptr noundef @.str.53, i32 noundef 2023, ptr noundef @.str.120, i32 noundef %58)
  %60 = icmp ne i32 %59, 0
  br i1 %60, label %61, label %65

61:                                               ; preds = %35
  %62 = getelementptr inbounds [16 x i8], ptr %8, i64 0, i64 0
  %63 = call i32 @test_mem_eq(ptr noundef @.str.53, i32 noundef 2024, ptr noundef @.str.68, ptr noundef @.str.97, ptr noundef %62, i64 noundef 16, ptr noundef @test_kbkdf_mac_change.output, i64 noundef 16)
  %64 = icmp ne i32 %63, 0
  br i1 %64, label %66, label %65

65:                                               ; preds = %61, %35
  br label %67

66:                                               ; preds = %61
  store i32 1, ptr %1, align 4, !tbaa !4
  br label %67

67:                                               ; preds = %66, %65, %34
  %68 = load ptr, ptr %2, align 8, !tbaa !8
  call void @EVP_KDF_CTX_free(ptr noundef %68)
  %69 = load i32, ptr %1, align 4, !tbaa !4
  call void @llvm.lifetime.end.p0(i64 16, ptr %8) #6
  call void @llvm.lifetime.end.p0(i64 4, ptr %7) #6
  call void @llvm.lifetime.end.p0(i64 4, ptr %6) #6
  call void @llvm.lifetime.end.p0(i64 4, ptr %5) #6
  call void @llvm.lifetime.end.p0(i64 8, ptr %4) #6
  call void @llvm.lifetime.end.p0(i64 360, ptr %3) #6
  call void @llvm.lifetime.end.p0(i64 8, ptr %2) #6
  call void @llvm.lifetime.end.p0(i64 4, ptr %1) #6
  ret i32 %69
}