; Function Attrs: nounwind uwtable
define internal range(i32 0, 2) i32 @test_kbkdf_mac_change() #0 {
  %1 = alloca [9 x %struct.ossl_param_st], align 16
  %2 = alloca i32, align 4
  %3 = alloca i32, align 4
  %4 = alloca i32, align 4
  %5 = alloca [16 x i8], align 16
  %6 = alloca %struct.ossl_param_st, align 8
  %7 = alloca %struct.ossl_param_st, align 8
  %8 = alloca %struct.ossl_param_st, align 8
  %9 = alloca %struct.ossl_param_st, align 8
  %10 = alloca %struct.ossl_param_st, align 8
  %11 = alloca %struct.ossl_param_st, align 8
  %12 = alloca %struct.ossl_param_st, align 8
  %13 = alloca %struct.ossl_param_st, align 8
  %14 = alloca %struct.ossl_param_st, align 8
  %15 = alloca %struct.ossl_param_st, align 8
  call void @llvm.lifetime.start.p0(i64 360, ptr nonnull %1) #6
  call void @llvm.lifetime.start.p0(i64 4, ptr nonnull %2) #6
  store i32 0, ptr %2, align 4, !tbaa !4
  call void @llvm.lifetime.start.p0(i64 4, ptr nonnull %3) #6
  store i32 0, ptr %3, align 4, !tbaa !4
  call void @llvm.lifetime.start.p0(i64 4, ptr nonnull %4) #6
  store i32 8, ptr %4, align 4, !tbaa !4
  call void @llvm.lifetime.start.p0(i64 16, ptr nonnull %5) #6
  call void @OSSL_PARAM_construct_utf8_string(ptr dead_on_unwind nonnull writable sret(%struct.ossl_param_st) align 8 %1, ptr noundef nonnull @.str.76, ptr noundef nonnull @.str.155, i64 noundef 0) #6
  %16 = getelementptr inbounds nuw i8, ptr %1, i64 40
  call void @llvm.lifetime.start.p0(i64 40, ptr nonnull %6) #6
  call void @OSSL_PARAM_construct_end(ptr dead_on_unwind nonnull writable sret(%struct.ossl_param_st) align 8 %6) #6
  call void @llvm.memcpy.p0.p0.i64(ptr noundef nonnull align 8 dereferenceable(40) %16, ptr noundef nonnull align 8 dereferenceable(40) %6, i64 40, i1 false), !tbaa.struct !10
  call void @llvm.lifetime.end.p0(i64 40, ptr nonnull %6) #6
  %17 = call ptr @EVP_KDF_fetch(ptr noundef null, ptr noundef nonnull @.str.82, ptr noundef null) #6
  %18 = call ptr @EVP_KDF_CTX_new(ptr noundef %17) #6
  call void @EVP_KDF_free(ptr noundef %17) #6
  %19 = call i32 @test_ptr(ptr noundef nonnull @.str.53, i32 noundef 2008, ptr noundef nonnull @.str.190, ptr noundef %18) #6
  %.not = icmp eq i32 %19, 0
  br i1 %.not, label %39, label %20

20:                                               ; preds = %0
  %21 = call i32 @EVP_KDF_CTX_set_params(ptr noundef %18, ptr noundef nonnull %1) #6
  %22 = icmp ne i32 %21, 0
  %23 = zext i1 %22 to i32
  %24 = call i32 @test_true(ptr noundef nonnull @.str.53, i32 noundef 2009, ptr noundef nonnull @.str.65, i32 noundef %23) #6
  %.not12 = icmp eq i32 %24, 0
  br i1 %.not12, label %39, label %25

25:                                               ; preds = %20
  call void @llvm.lifetime.start.p0(i64 40, ptr nonnull %7) #6
  call void @OSSL_PARAM_construct_utf8_string(ptr dead_on_unwind nonnull writable sret(%struct.ossl_param_st) align 8 %7, ptr noundef nonnull @.str.78, ptr noundef nonnull @.str.92, i64 noundef 0) #6
  call void @llvm.memcpy.p0.p0.i64(ptr noundef nonnull align 16 dereferenceable(40) %1, ptr noundef nonnull align 8 dereferenceable(40) %7, i64 40, i1 false), !tbaa.struct !10
  call void @llvm.lifetime.end.p0(i64 40, ptr nonnull %7) #6
  %26 = getelementptr inbounds nuw i8, ptr %1, i64 80
  call void @llvm.lifetime.start.p0(i64 40, ptr nonnull %8) #6
  call void @OSSL_PARAM_construct_utf8_string(ptr dead_on_unwind nonnull writable sret(%struct.ossl_param_st) align 8 %8, ptr noundef nonnull @.str.76, ptr noundef nonnull @.str.89, i64 noundef 0) #6
  call void @llvm.memcpy.p0.p0.i64(ptr noundef nonnull align 8 dereferenceable(40) %16, ptr noundef nonnull align 8 dereferenceable(40) %8, i64 40, i1 false), !tbaa.struct !10
  call void @llvm.lifetime.end.p0(i64 40, ptr nonnull %8) #6
  %27 = getelementptr inbounds nuw i8, ptr %1, i64 120
  call void @llvm.lifetime.start.p0(i64 40, ptr nonnull %9) #6
  call void @OSSL_PARAM_construct_utf8_string(ptr dead_on_unwind nonnull writable sret(%struct.ossl_param_st) align 8 %9, ptr noundef nonnull @.str.73, ptr noundef nonnull @.str.156, i64 noundef 0) #6
  call void @llvm.memcpy.p0.p0.i64(ptr noundef nonnull align 16 dereferenceable(40) %26, ptr noundef nonnull align 8 dereferenceable(40) %9, i64 40, i1 false), !tbaa.struct !10
  call void @llvm.lifetime.end.p0(i64 40, ptr nonnull %9) #6
  %28 = getelementptr inbounds nuw i8, ptr %1, i64 160
  call void @llvm.lifetime.start.p0(i64 40, ptr nonnull %10) #6
  call void @OSSL_PARAM_construct_int(ptr dead_on_unwind nonnull writable sret(%struct.ossl_param_st) align 8 %10, ptr noundef nonnull @.str.100, ptr noundef nonnull %2) #6
  call void @llvm.memcpy.p0.p0.i64(ptr noundef nonnull align 8 dereferenceable(40) %27, ptr noundef nonnull align 8 dereferenceable(40) %10, i64 40, i1 false), !tbaa.struct !10
  call void @llvm.lifetime.end.p0(i64 40, ptr nonnull %10) #6
  %29 = getelementptr inbounds nuw i8, ptr %1, i64 200
  call void @llvm.lifetime.start.p0(i64 40, ptr nonnull %11) #6
  call void @OSSL_PARAM_construct_int(ptr dead_on_unwind nonnull writable sret(%struct.ossl_param_st) align 8 %11, ptr noundef nonnull @.str.101, ptr noundef nonnull %3) #6
  call void @llvm.memcpy.p0.p0.i64(ptr noundef nonnull align 16 dereferenceable(40) %28, ptr noundef nonnull align 8 dereferenceable(40) %11, i64 40, i1 false), !tbaa.struct !10
  call void @llvm.lifetime.end.p0(i64 40, ptr nonnull %11) #6
  %30 = getelementptr inbounds nuw i8, ptr %1, i64 240
  call void @llvm.lifetime.start.p0(i64 40, ptr nonnull %12) #6
  call void @OSSL_PARAM_construct_int(ptr dead_on_unwind nonnull writable sret(%struct.ossl_param_st) align 8 %12, ptr noundef nonnull @.str.94, ptr noundef nonnull %4) #6
  call void @llvm.memcpy.p0.p0.i64(ptr noundef nonnull align 8 dereferenceable(40) %29, ptr noundef nonnull align 8 dereferenceable(40) %12, i64 40, i1 false), !tbaa.struct !10
  call void @llvm.lifetime.end.p0(i64 40, ptr nonnull %12) #6
  %31 = getelementptr inbounds nuw i8, ptr %1, i64 280
  call void @llvm.lifetime.start.p0(i64 40, ptr nonnull %13) #6
  call void @OSSL_PARAM_construct_octet_string(ptr dead_on_unwind nonnull writable sret(%struct.ossl_param_st) align 8 %13, ptr noundef nonnull @.str.80, ptr noundef nonnull @test_kbkdf_mac_change.key, i64 noundef 32) #6
  call void @llvm.memcpy.p0.p0.i64(ptr noundef nonnull align 16 dereferenceable(40) %30, ptr noundef nonnull align 8 dereferenceable(40) %13, i64 40, i1 false), !tbaa.struct !10
  call void @llvm.lifetime.end.p0(i64 40, ptr nonnull %13) #6
  %32 = getelementptr inbounds nuw i8, ptr %1, i64 320
  call void @llvm.lifetime.start.p0(i64 40, ptr nonnull %14) #6
  call void @OSSL_PARAM_construct_octet_string(ptr dead_on_unwind nonnull writable sret(%struct.ossl_param_st) align 8 %14, ptr noundef nonnull @.str.93, ptr noundef nonnull @test_kbkdf_mac_change.info, i64 noundef 60) #6
  call void @llvm.memcpy.p0.p0.i64(ptr noundef nonnull align 8 dereferenceable(40) %31, ptr noundef nonnull align 8 dereferenceable(40) %14, i64 40, i1 false), !tbaa.struct !10
  call void @llvm.lifetime.end.p0(i64 40, ptr nonnull %14) #6
  call void @llvm.lifetime.start.p0(i64 40, ptr nonnull %15) #6
  call void @OSSL_PARAM_construct_end(ptr dead_on_unwind nonnull writable sret(%struct.ossl_param_st) align 8 %15) #6
  call void @llvm.memcpy.p0.p0.i64(ptr noundef nonnull align 16 dereferenceable(40) %32, ptr noundef nonnull align 8 dereferenceable(40) %15, i64 40, i1 false), !tbaa.struct !10
  call void @llvm.lifetime.end.p0(i64 40, ptr nonnull %15) #6
  %33 = call i32 @EVP_KDF_derive(ptr noundef %18, ptr noundef nonnull %5, i64 noundef 16, ptr noundef nonnull %1) #6
  %34 = icmp ne i32 %33, 0
  %35 = zext i1 %34 to i32
  %36 = call i32 @test_true(ptr noundef nonnull @.str.53, i32 noundef 2023, ptr noundef nonnull @.str.120, i32 noundef %35) #6
  %.not13 = icmp eq i32 %36, 0
  br i1 %.not13, label %39, label %37

37:                                               ; preds = %25
  %38 = call i32 @test_mem_eq(ptr noundef nonnull @.str.53, i32 noundef 2024, ptr noundef nonnull @.str.68, ptr noundef nonnull @.str.97, ptr noundef nonnull %5, i64 noundef 16, ptr noundef nonnull @test_kbkdf_mac_change.output, i64 noundef 16) #6
  %.not14 = icmp ne i32 %38, 0
  %spec.select = zext i1 %.not14 to i32
  br label %39

39:                                               ; preds = %37, %25, %0, %20
  %.0 = phi i32 [ 0, %25 ], [ 0, %20 ], [ 0, %0 ], [ %spec.select, %37 ]
  call void @EVP_KDF_CTX_free(ptr noundef %18) #6
  call void @llvm.lifetime.end.p0(i64 16, ptr nonnull %5) #6
  call void @llvm.lifetime.end.p0(i64 4, ptr nonnull %4) #6
  call void @llvm.lifetime.end.p0(i64 4, ptr nonnull %3) #6
  call void @llvm.lifetime.end.p0(i64 4, ptr nonnull %2) #6
  call void @llvm.lifetime.end.p0(i64 360, ptr nonnull %1) #6
  ret i32 %.0
}